target datalayout = "e-m:e-p270:32:32-p271:32:32-p272:64:64-i64:64-i128:128-f80:128-n8:16:32:64-S128"
target triple = "x86_64-pc-linux-gnu"

%"class.cv::DenseOpticalFlow" = type { %"class.cv::Algorithm" }
%"class.cv::Algorithm" = type { ptr }
%"class.cv::optflow::OpticalFlowSparseToDense" = type { %"class.cv::DenseOpticalFlow", i32, i32, float, i8, float, float }

; Function Attrs: inlinehint mustprogress uwtable
define linkonce_odr hidden void @_ZN2cv16DenseOpticalFlowC2Ev(ptr noundef nonnull align 8 dereferenceable(8) %0) unnamed_addr #1 comdat align 2 {
  %2 = alloca ptr, align 8
  store ptr %0, ptr %2, align 8, !tbaa !28
  %3 = load ptr, ptr %2, align 8
  call void @_ZN2cv9AlgorithmC2Ev(ptr noundef nonnull align 8 dereferenceable(8) %3)
  store ptr getelementptr inbounds inrange(-16, 80) ({ [12 x ptr] }, ptr @_ZTVN2cv16DenseOpticalFlowE, i32 0, i32 0, i32 2), ptr %3, align 8, !tbaa !8
  ret void
}

; Function Attrs: mustprogress uwtable
define hidden void @_ZN2cv7optflow24OpticalFlowSparseToDenseC2Eiifbff(ptr noundef nonnull align 8 dereferenceable(32) %0, i32 noundef %1, i32 noundef %2, float noundef %3, i1 noundef zeroext %4, float noundef %5, float noundef %6) unnamed_addr #0 align 2 {
  %8 = alloca ptr, align 8
  %9 = alloca i32, align 4
  %10 = alloca i32, align 4
  %11 = alloca float, align 4
  %12 = alloca i8, align 1
  %13 = alloca float, align 4
  %14 = alloca float, align 4
  store ptr %0, ptr %8, align 8, !tbaa !52
  store i32 %1, ptr %9, align 4, !tbaa !54
  store i32 %2, ptr %10, align 4, !tbaa !54
  store float %3, ptr %11, align 4, !tbaa !55
  %15 = zext i1 %4 to i8
  store i8 %15, ptr %12, align 1, !tbaa !57
  store float %5, ptr %13, align 4, !tbaa !55
  store float %6, ptr %14, align 4, !tbaa !55
  %16 = load ptr, ptr %8, align 8
  call void @_ZN2cv16DenseOpticalFlowC2Ev(ptr noundef nonnull align 8 dereferenceable(8) %16)
  store ptr getelementptr inbounds inrange(-16, 80) ({ [12 x ptr] }, ptr @_ZTVN2cv7optflow24OpticalFlowSparseToDenseE, i32 0, i32 0, i32 2), ptr %16, align 8, !tbaa !8
  %17 = load i32, ptr %9, align 4, !tbaa !54
  %18 = getelementptr inbounds nuw %"class.cv::optflow::OpticalFlowSparseToDense", ptr %16, i32 0, i32 1
  store i32 %17, ptr %18, align 8, !tbaa !58
  %19 = load i32, ptr %10, align 4, !tbaa !54
  %20 = getelementptr inbounds nuw %"class.cv::optflow::OpticalFlowSparseToDense", ptr %16, i32 0, i32 2
  store i32 %19, ptr %20, align 4, !tbaa !60
  %21 = load float, ptr %11, align 4, !tbaa !55
  %22 = getelementptr inbounds nuw %"class.cv::optflow::OpticalFlowSparseToDense", ptr %16, i32 0, i32 3
  store float %21, ptr %22, align 8, !tbaa !61
  %23 = load i8, ptr %12, align 1, !tbaa !57, !range !62, !noundef !63
  %24 = trunc i8 %23 to i1
  %25 = getelementptr inbounds nuw %"class.cv::optflow::OpticalFlowSparseToDense", ptr %16, i32 0, i32 4
  %26 = zext i1 %24 to i8
  store i8 %26, ptr %25, align 4, !tbaa !64
  %27 = load float, ptr %13, align 4, !tbaa !55
  %28 = getelementptr inbounds nuw %"class.cv::optflow::OpticalFlowSparseToDense", ptr %16, i32 0, i32 5
  store float %27, ptr %28, align 8, !tbaa !65
  %29 = load float, ptr %14, align 4, !tbaa !55
  %30 = getelementptr inbounds nuw %"class.cv::optflow::OpticalFlowSparseToDense", ptr %16, i32 0, i32 6
  store float %29, ptr %30, align 4, !tbaa !66
  ret void
}