; Function Attrs: mustprogress uwtable
define hidden void @_ZN2cv7optflow24OpticalFlowSparseToDenseC2Eiifbff(ptr noundef nonnull align 8 dereferenceable(32) %0, i32 noundef %1, i32 noundef %2, float noundef %3, i1 noundef zeroext %4, float noundef %5, float noundef %6) unnamed_addr #0 align 2 {
  %8 = zext i1 %4 to i8
  tail call void @_ZN2cv9AlgorithmC2Ev(ptr noundef nonnull align 8 dereferenceable(8) %0)
  store ptr getelementptr inbounds nuw inrange(-16, 80) (i8, ptr @_ZTVN2cv7optflow24OpticalFlowSparseToDenseE, i64 16), ptr %0, align 8, !tbaa !3
  %9 = getelementptr inbounds nuw i8, ptr %0, i64 8
  store i32 %1, ptr %9, align 8, !tbaa !55
  %10 = getelementptr inbounds nuw i8, ptr %0, i64 12
  store i32 %2, ptr %10, align 4, !tbaa !58
  %11 = getelementptr inbounds nuw i8, ptr %0, i64 16
  store float %3, ptr %11, align 8, !tbaa !59
  %12 = getelementptr inbounds nuw i8, ptr %0, i64 20
  store i8 %8, ptr %12, align 4, !tbaa !60
  %13 = getelementptr inbounds nuw i8, ptr %0, i64 24
  store float %5, ptr %13, align 8, !tbaa !61
  %14 = getelementptr inbounds nuw i8, ptr %0, i64 28
  store float %6, ptr %14, align 4, !tbaa !62
  ret void
}